; Function Attrs: mustprogress nofree norecurse nosync nounwind memory(write, argmem: readwrite, inaccessiblemem: none) uwtable
define void @_ZN5Yosys3Mem11clear_initsEv(ptr noundef nonnull readonly align 8 captures(none) dereferenceable(176) %0) local_unnamed_addr #11 align 2 {
  %2 = getelementptr inbounds nuw i8, ptr %0, i64 104
  %3 = load ptr, ptr %2, align 8, !tbaa !79
  %4 = getelementptr inbounds nuw i8, ptr %0, i64 112
  %5 = load ptr, ptr %4, align 8, !tbaa !79
  %.not7 = icmp eq ptr %3, %5
  br i1 %.not7, label %._crit_edge, label %.lr.ph

._crit_edge:                                      ; preds = %.lr.ph, %1
  ret void

.lr.ph:                                           ; preds = %1, %.lr.ph
  %.sroa.04.08 = phi ptr [ %7, %.lr.ph ], [ %3, %1 ]
  %6 = getelementptr inbounds nuw i8, ptr %.sroa.04.08, i64 56
  store i8 1, ptr %6, align 8, !tbaa !100
  %7 = getelementptr inbounds nuw i8, ptr %.sroa.04.08, i64 192
  %.not = icmp eq ptr %7, %5
  br i1 %.not, label %._crit_edge, label %.lr.ph
}